target datalayout = "e-m:e-p270:32:32-p271:32:32-p272:64:64-i64:64-i128:128-f80:128-n8:16:32:64-S128"
target triple = "x86_64-pc-linux-gnu"

%struct.ref_iterator_vtable = type { ptr, ptr, ptr }
%struct.ref_iterator = type { ptr, ptr, ptr, ptr, i32 }
%struct.prefix_ref_iterator = type { %struct.ref_iterator, ptr, ptr, i32 }

@.str = private unnamed_addr constant [16 x i8] c"refs/iterator.c\00", align 1
@.str.3 = private unnamed_addr constant [36 x i8] c"attempt to trim too many characters\00", align 1

; Function Attrs: nounwind uwtable
define dso_local i32 @ref_iterator_abort(ptr noundef %0) #0 {
  %2 = alloca ptr, align 8
  store ptr %0, ptr %2, align 8, !tbaa !4
  %3 = load ptr, ptr %2, align 8, !tbaa !4
  %4 = getelementptr inbounds nuw %struct.ref_iterator, ptr %3, i32 0, i32 0
  %5 = load ptr, ptr %4, align 8, !tbaa !9
  %6 = getelementptr inbounds nuw %struct.ref_iterator_vtable, ptr %5, i32 0, i32 2
  %7 = load ptr, ptr %6, align 8, !tbaa !19
  %8 = load ptr, ptr %2, align 8, !tbaa !4
  %9 = call i32 %7(ptr noundef %8)
  ret i32 %9
}

; Function Attrs: nounwind uwtable
define internal i32 @compare_prefix(ptr noundef %0, ptr noundef %1) #0 {
  %3 = alloca i32, align 4
  %4 = alloca ptr, align 8
  %5 = alloca ptr, align 8
  store ptr %0, ptr %4, align 8, !tbaa !38
  store ptr %1, ptr %5, align 8, !tbaa !38
  br label %6

6:                                                ; preds = %27, %2
  %7 = load ptr, ptr %5, align 8, !tbaa !38
  %8 = load i8, ptr %7, align 1, !tbaa !39
  %9 = icmp ne i8 %8, 0
  br i1 %9, label %10, label %32

10:                                               ; preds = %6
  %11 = load ptr, ptr %4, align 8, !tbaa !38
  %12 = load i8, ptr %11, align 1, !tbaa !39
  %13 = sext i8 %12 to i32
  %14 = load ptr, ptr %5, align 8, !tbaa !38
  %15 = load i8, ptr %14, align 1, !tbaa !39
  %16 = sext i8 %15 to i32
  %17 = icmp ne i32 %13, %16
  br i1 %17, label %18, label %27

18:                                               ; preds = %10
  %19 = load ptr, ptr %4, align 8, !tbaa !38
  %20 = load i8, ptr %19, align 1, !tbaa !39
  %21 = zext i8 %20 to i32
  %22 = load ptr, ptr %5, align 8, !tbaa !38
  %23 = load i8, ptr %22, align 1, !tbaa !39
  %24 = zext i8 %23 to i32
  %25 = icmp slt i32 %21, %24
  %26 = select i1 %25, i32 -1, i32 1
  store i32 %26, ptr %3, align 4
  br label %33

27:                                               ; preds = %10
  %28 = load ptr, ptr %4, align 8, !tbaa !38
  %29 = getelementptr inbounds nuw i8, ptr %28, i32 1
  store ptr %29, ptr %4, align 8, !tbaa !38
  %30 = load ptr, ptr %5, align 8, !tbaa !38
  %31 = getelementptr inbounds nuw i8, ptr %30, i32 1
  store ptr %31, ptr %5, align 8, !tbaa !38
  br label %6, !llvm.loop !57

32:                                               ; preds = %6
  store i32 0, ptr %3, align 4
  br label %33

33:                                               ; preds = %32, %18
  %34 = load i32, ptr %3, align 4
  ret i32 %34
}

; Function Attrs: nounwind uwtable
define dso_local i32 @ref_iterator_advance(ptr noundef %0) #0 {
  %2 = alloca ptr, align 8
  store ptr %0, ptr %2, align 8, !tbaa !4
  %3 = load ptr, ptr %2, align 8, !tbaa !4
  %4 = getelementptr inbounds nuw %struct.ref_iterator, ptr %3, i32 0, i32 0
  %5 = load ptr, ptr %4, align 8, !tbaa !9
  %6 = getelementptr inbounds nuw %struct.ref_iterator_vtable, ptr %5, i32 0, i32 0
  %7 = load ptr, ptr %6, align 8, !tbaa !15
  %8 = load ptr, ptr %2, align 8, !tbaa !4
  %9 = call i32 %7(ptr noundef %8)
  ret i32 %9
}

; Function Attrs: nounwind uwtable
define internal i32 @prefix_ref_iterator_advance(ptr noundef %0) #0 {
  %2 = alloca i32, align 4
  %3 = alloca ptr, align 8
  %4 = alloca ptr, align 8
  %5 = alloca i32, align 4
  %6 = alloca i32, align 4
  %7 = alloca i32, align 4
  store ptr %0, ptr %3, align 8, !tbaa !4
  call void @llvm.lifetime.start.p0(i64 8, ptr %4) #6
  %8 = load ptr, ptr %3, align 8, !tbaa !4
  store ptr %8, ptr %4, align 8, !tbaa !40
  call void @llvm.lifetime.start.p0(i64 4, ptr %5) #6
  br label %9

9:                                                ; preds = %94, %1
  %10 = load ptr, ptr %4, align 8, !tbaa !40
  %11 = getelementptr inbounds nuw %struct.prefix_ref_iterator, ptr %10, i32 0, i32 1
  %12 = load ptr, ptr %11, align 8, !tbaa !42
  %13 = call i32 @ref_iterator_advance(ptr noundef %12)
  store i32 %13, ptr %5, align 4, !tbaa !28
  %14 = icmp eq i32 %13, 0
  br i1 %14, label %15, label %96

15:                                               ; preds = %9
  call void @llvm.lifetime.start.p0(i64 4, ptr %6) #6
  %16 = load ptr, ptr %4, align 8, !tbaa !40
  %17 = getelementptr inbounds nuw %struct.prefix_ref_iterator, ptr %16, i32 0, i32 1
  %18 = load ptr, ptr %17, align 8, !tbaa !42
  %19 = getelementptr inbounds nuw %struct.ref_iterator, ptr %18, i32 0, i32 1
  %20 = load ptr, ptr %19, align 8, !tbaa !21
  %21 = load ptr, ptr %4, align 8, !tbaa !40
  %22 = getelementptr inbounds nuw %struct.prefix_ref_iterator, ptr %21, i32 0, i32 2
  %23 = load ptr, ptr %22, align 8, !tbaa !44
  %24 = call i32 @compare_prefix(ptr noundef %20, ptr noundef %23)
  store i32 %24, ptr %6, align 4, !tbaa !28
  %25 = load i32, ptr %6, align 4, !tbaa !28
  %26 = icmp slt i32 %25, 0
  br i1 %26, label %27, label %28

27:                                               ; preds = %15
  store i32 2, ptr %7, align 4
  br label %94, !llvm.loop !53

28:                                               ; preds = %15
  %29 = load i32, ptr %6, align 4, !tbaa !28
  %30 = icmp sgt i32 %29, 0
  br i1 %30, label %31, label %36

31:                                               ; preds = %28
  %32 = load ptr, ptr %4, align 8, !tbaa !40
  %33 = getelementptr inbounds nuw %struct.prefix_ref_iterator, ptr %32, i32 0, i32 1
  %34 = load ptr, ptr %33, align 8, !tbaa !42
  %35 = call i32 @ref_iterator_abort(ptr noundef %34)
  store i32 %35, ptr %5, align 4, !tbaa !28
  store i32 3, ptr %7, align 4
  br label %94

36:                                               ; preds = %28
  %37 = load ptr, ptr %4, align 8, !tbaa !40
  %38 = getelementptr inbounds nuw %struct.prefix_ref_iterator, ptr %37, i32 0, i32 3
  %39 = load i32, ptr %38, align 8, !tbaa !45
  %40 = icmp ne i32 %39, 0
  br i1 %40, label %41, label %68

41:                                               ; preds = %36
  %42 = load ptr, ptr %4, align 8, !tbaa !40
  %43 = getelementptr inbounds nuw %struct.prefix_ref_iterator, ptr %42, i32 0, i32 1
  %44 = load ptr, ptr %43, align 8, !tbaa !42
  %45 = getelementptr inbounds nuw %struct.ref_iterator, ptr %44, i32 0, i32 1
  %46 = load ptr, ptr %45, align 8, !tbaa !21
  %47 = call i64 @strlen(ptr noundef %46) #7
  %48 = load ptr, ptr %4, align 8, !tbaa !40
  %49 = getelementptr inbounds nuw %struct.prefix_ref_iterator, ptr %48, i32 0, i32 3
  %50 = load i32, ptr %49, align 8, !tbaa !45
  %51 = sext i32 %50 to i64
  %52 = icmp ule i64 %47, %51
  br i1 %52, label %53, label %54

53:                                               ; preds = %41
  call void (ptr, i32, ptr, ...) @BUG_fl(ptr noundef @.str, i32 noundef 378, ptr noundef @.str.3) #8
  unreachable

54:                                               ; preds = %41
  %55 = load ptr, ptr %4, align 8, !tbaa !40
  %56 = getelementptr inbounds nuw %struct.prefix_ref_iterator, ptr %55, i32 0, i32 1
  %57 = load ptr, ptr %56, align 8, !tbaa !42
  %58 = getelementptr inbounds nuw %struct.ref_iterator, ptr %57, i32 0, i32 1
  %59 = load ptr, ptr %58, align 8, !tbaa !21
  %60 = load ptr, ptr %4, align 8, !tbaa !40
  %61 = getelementptr inbounds nuw %struct.prefix_ref_iterator, ptr %60, i32 0, i32 3
  %62 = load i32, ptr %61, align 8, !tbaa !45
  %63 = sext i32 %62 to i64
  %64 = getelementptr inbounds i8, ptr %59, i64 %63
  %65 = load ptr, ptr %4, align 8, !tbaa !40
  %66 = getelementptr inbounds nuw %struct.prefix_ref_iterator, ptr %65, i32 0, i32 0
  %67 = getelementptr inbounds nuw %struct.ref_iterator, ptr %66, i32 0, i32 1
  store ptr %64, ptr %67, align 8, !tbaa !54
  br label %77

68:                                               ; preds = %36
  %69 = load ptr, ptr %4, align 8, !tbaa !40
  %70 = getelementptr inbounds nuw %struct.prefix_ref_iterator, ptr %69, i32 0, i32 1
  %71 = load ptr, ptr %70, align 8, !tbaa !42
  %72 = getelementptr inbounds nuw %struct.ref_iterator, ptr %71, i32 0, i32 1
  %73 = load ptr, ptr %72, align 8, !tbaa !21
  %74 = load ptr, ptr %4, align 8, !tbaa !40
  %75 = getelementptr inbounds nuw %struct.prefix_ref_iterator, ptr %74, i32 0, i32 0
  %76 = getelementptr inbounds nuw %struct.ref_iterator, ptr %75, i32 0, i32 1
  store ptr %73, ptr %76, align 8, !tbaa !54
  br label %77

77:                                               ; preds = %68, %54
  %78 = load ptr, ptr %4, align 8, !tbaa !40
  %79 = getelementptr inbounds nuw %struct.prefix_ref_iterator, ptr %78, i32 0, i32 1
  %80 = load ptr, ptr %79, align 8, !tbaa !42
  %81 = getelementptr inbounds nuw %struct.ref_iterator, ptr %80, i32 0, i32 3
  %82 = load ptr, ptr %81, align 8, !tbaa !23
  %83 = load ptr, ptr %4, align 8, !tbaa !40
  %84 = getelementptr inbounds nuw %struct.prefix_ref_iterator, ptr %83, i32 0, i32 0
  %85 = getelementptr inbounds nuw %struct.ref_iterator, ptr %84, i32 0, i32 3
  store ptr %82, ptr %85, align 8, !tbaa !55
  %86 = load ptr, ptr %4, align 8, !tbaa !40
  %87 = getelementptr inbounds nuw %struct.prefix_ref_iterator, ptr %86, i32 0, i32 1
  %88 = load ptr, ptr %87, align 8, !tbaa !42
  %89 = getelementptr inbounds nuw %struct.ref_iterator, ptr %88, i32 0, i32 4
  %90 = load i32, ptr %89, align 8, !tbaa !24
  %91 = load ptr, ptr %4, align 8, !tbaa !40
  %92 = getelementptr inbounds nuw %struct.prefix_ref_iterator, ptr %91, i32 0, i32 0
  %93 = getelementptr inbounds nuw %struct.ref_iterator, ptr %92, i32 0, i32 4
  store i32 %90, ptr %93, align 8, !tbaa !56
  store i32 0, ptr %2, align 4
  store i32 1, ptr %7, align 4
  br label %94

94:                                               ; preds = %77, %31, %27
  call void @llvm.lifetime.end.p0(i64 4, ptr %6) #6
  %95 = load i32, ptr %7, align 4
  switch i32 %95, label %105 [
    i32 2, label %9
    i32 3, label %96
  ]

96:                                               ; preds = %94, %9
  %97 = load ptr, ptr %4, align 8, !tbaa !40
  %98 = getelementptr inbounds nuw %struct.prefix_ref_iterator, ptr %97, i32 0, i32 1
  store ptr null, ptr %98, align 8, !tbaa !42
  %99 = load ptr, ptr %3, align 8, !tbaa !4
  %100 = call i32 @ref_iterator_abort(ptr noundef %99)
  %101 = icmp ne i32 %100, -1
  br i1 %101, label %102, label %103

102:                                              ; preds = %96
  store i32 -2, ptr %2, align 4
  store i32 1, ptr %7, align 4
  br label %105

103:                                              ; preds = %96
  %104 = load i32, ptr %5, align 4, !tbaa !28
  store i32 %104, ptr %2, align 4
  store i32 1, ptr %7, align 4
  br label %105

105:                                              ; preds = %103, %102, %94
  call void @llvm.lifetime.end.p0(i64 4, ptr %5) #6
  call void @llvm.lifetime.end.p0(i64 8, ptr %4) #6
  %106 = load i32, ptr %2, align 4
  ret i32 %106
}