; Function Attrs: nounwind uwtable
define internal i32 @prefix_ref_iterator_advance(ptr noundef %0) #0 {
  %2 = getelementptr inbounds nuw i8, ptr %0, i64 40
  %3 = getelementptr inbounds nuw i8, ptr %0, i64 48
  %.pre = load ptr, ptr %2, align 8, !tbaa !27
  br label %compare_prefix.exit

compare_prefix.exit:                              ; preds = %17, %1
  %4 = phi ptr [ %10, %17 ], [ %.pre, %1 ]
  %5 = load ptr, ptr %4, align 8, !tbaa !4
  %6 = load ptr, ptr %5, align 8, !tbaa !13
  %7 = tail call i32 %6(ptr noundef nonnull %4) #11
  %8 = icmp eq i32 %7, 0
  br i1 %8, label %9, label %.loopexit44

9:                                                ; preds = %compare_prefix.exit
  %10 = load ptr, ptr %2, align 8, !tbaa !27
  %11 = getelementptr inbounds nuw i8, ptr %10, i64 8
  %12 = load ptr, ptr %11, align 8, !tbaa !17
  %13 = load ptr, ptr %3, align 8, !tbaa !29
  %14 = load i8, ptr %13, align 1, !tbaa !26
  %.not13.i = icmp eq i8 %14, 0
  br i1 %.not13.i, label %.loopexit, label %.lr.ph.i

.lr.ph.i:                                         ; preds = %9, %19
  %15 = phi i8 [ %22, %19 ], [ %14, %9 ]
  %.015.i = phi ptr [ %21, %19 ], [ %13, %9 ]
  %.0714.i = phi ptr [ %20, %19 ], [ %12, %9 ]
  %16 = load i8, ptr %.0714.i, align 1, !tbaa !26
  %.not10.i = icmp eq i8 %16, %15
  br i1 %.not10.i, label %19, label %17

17:                                               ; preds = %.lr.ph.i
  %18 = icmp ult i8 %16, %15
  br i1 %18, label %compare_prefix.exit, label %compare_prefix.exit.thread41, !llvm.loop !41

19:                                               ; preds = %.lr.ph.i
  %20 = getelementptr inbounds nuw i8, ptr %.0714.i, i64 1
  %21 = getelementptr inbounds nuw i8, ptr %.015.i, i64 1
  %22 = load i8, ptr %21, align 1, !tbaa !26
  %.not.i = icmp eq i8 %22, 0
  br i1 %.not.i, label %.loopexit, label %.lr.ph.i, !llvm.loop !42

compare_prefix.exit.thread41:                     ; preds = %17
  %23 = load ptr, ptr %10, align 8, !tbaa !4
  %24 = getelementptr inbounds nuw i8, ptr %23, i64 16
  %25 = load ptr, ptr %24, align 8, !tbaa !16
  %26 = tail call i32 %25(ptr noundef nonnull %10) #11
  br label %.loopexit44

.loopexit:                                        ; preds = %9, %19
  %27 = getelementptr inbounds nuw i8, ptr %0, i64 56
  %28 = load i32, ptr %27, align 8, !tbaa !30
  %.not31 = icmp eq i32 %28, 0
  br i1 %.not31, label %compare_prefix.exit.thread38, label %29

29:                                               ; preds = %.loopexit
  %30 = tail call i64 @strlen(ptr noundef nonnull dereferenceable(1) %12) #12
  %31 = sext i32 %28 to i64
  %.not32 = icmp ugt i64 %30, %31
  br i1 %.not32, label %33, label %32

32:                                               ; preds = %29
  tail call void (ptr, i32, ptr, ...) @BUG_fl(ptr noundef nonnull @.str, i32 noundef 378, ptr noundef nonnull @.str.3) #13
  unreachable

33:                                               ; preds = %29
  %34 = getelementptr inbounds i8, ptr %12, i64 %31
  br label %compare_prefix.exit.thread38

compare_prefix.exit.thread38:                     ; preds = %.loopexit, %33
  %.sink = phi ptr [ %34, %33 ], [ %12, %.loopexit ]
  %35 = getelementptr inbounds nuw i8, ptr %0, i64 8
  store ptr %.sink, ptr %35, align 8, !tbaa !43
  %36 = getelementptr inbounds nuw i8, ptr %10, i64 24
  %37 = load ptr, ptr %36, align 8, !tbaa !33
  %38 = getelementptr inbounds nuw i8, ptr %0, i64 24
  store ptr %37, ptr %38, align 8, !tbaa !44
  %39 = getelementptr inbounds nuw i8, ptr %10, i64 32
  %40 = load i32, ptr %39, align 8, !tbaa !34
  %41 = getelementptr inbounds nuw i8, ptr %0, i64 32
  store i32 %40, ptr %41, align 8, !tbaa !45
  br label %46

.loopexit44:                                      ; preds = %compare_prefix.exit, %compare_prefix.exit.thread41
  %.024 = phi i32 [ %26, %compare_prefix.exit.thread41 ], [ %7, %compare_prefix.exit ]
  store ptr null, ptr %2, align 8, !tbaa !27
  %42 = load ptr, ptr %0, align 8, !tbaa !4
  %43 = getelementptr inbounds nuw i8, ptr %42, i64 16
  %44 = load ptr, ptr %43, align 8, !tbaa !16
  %45 = tail call i32 %44(ptr noundef nonnull %0) #11
  %.not33 = icmp eq i32 %45, -1
  %.024. = select i1 %.not33, i32 %.024, i32 -2
  br label %46

46:                                               ; preds = %compare_prefix.exit.thread38, %.loopexit44
  %.2 = phi i32 [ %.024., %.loopexit44 ], [ 0, %compare_prefix.exit.thread38 ]
  ret i32 %.2
}